; Listing generated by Microsoft (R) Optimizing Compiler Version 19.41.34120.0 

include listing.inc

INCLUDELIB MSVCRTD
INCLUDELIB OLDNAMES

msvcjmc	SEGMENT
__D99B3FB8_test@pch DB 01H
__3D60FF8C_countNumber@cpp DB 01H
__BEE47252_stdafx@h DB 01H
__45E97609_stdafx@cpp DB 01H
msvcjmc	ENDS
PUBLIC	?__empty_global_delete@@YAXPEAX@Z		; __empty_global_delete
PUBLIC	?__empty_global_delete@@YAXPEAX_K@Z		; __empty_global_delete
PUBLIC	?countNumber@@YAHHHH@Z				; countNumber
PUBLIC	__JustMyCode_Default
EXTRN	?defineLeapYear@@YA_NH@Z:PROC			; defineLeapYear
EXTRN	_RTC_CheckStackVars:PROC
EXTRN	_RTC_InitBase:PROC
EXTRN	_RTC_Shutdown:PROC
EXTRN	__CheckForDebuggerJustMyCode:PROC
;	COMDAT pdata
pdata	SEGMENT
$pdata$?__empty_global_delete@@YAXPEAX@Z DD imagerel $LN3
	DD	imagerel $LN3+42
	DD	imagerel $unwind$?__empty_global_delete@@YAXPEAX@Z
pdata	ENDS
;	COMDAT pdata
pdata	SEGMENT
$pdata$?__empty_global_delete@@YAXPEAX_K@Z DD imagerel $LN3
	DD	imagerel $LN3+47
	DD	imagerel $unwind$?__empty_global_delete@@YAXPEAX_K@Z
pdata	ENDS
;	COMDAT pdata
pdata	SEGMENT
$pdata$?countNumber@@YAHHHH@Z DD imagerel $LN7
	DD	imagerel $LN7+275
	DD	imagerel $unwind$?countNumber@@YAHHHH@Z
pdata	ENDS
;	COMDAT rtc$TMZ
rtc$TMZ	SEGMENT
_RTC_Shutdown.rtc$TMZ DQ FLAT:_RTC_Shutdown
rtc$TMZ	ENDS
;	COMDAT rtc$IMZ
rtc$IMZ	SEGMENT
_RTC_InitBase.rtc$IMZ DQ FLAT:_RTC_InitBase
rtc$IMZ	ENDS
;	COMDAT xdata
xdata	SEGMENT
$unwind$?countNumber@@YAHHHH@Z DD 025053301H
	DD	0116231bH
	DD	0700f002fH
	DD	0500eH
xdata	ENDS
;	COMDAT CONST
CONST	SEGMENT
?countNumber@@YAHHHH@Z$rtcName$0 DB 044H		; countNumber
	DB	061H
	DB	079H
	DB	073H
	DB	049H
	DB	06eH
	DB	04dH
	DB	06fH
	DB	075H
	DB	06eH
	DB	074H
	DB	063H
	DB	068H
	DB	00H
	ORG $+2
?countNumber@@YAHHHH@Z$rtcVarDesc DD 028H		; countNumber
	DD	030H
	DQ	FLAT:?countNumber@@YAHHHH@Z$rtcName$0
	ORG $+48
?countNumber@@YAHHHH@Z$rtcFrameData DD 01H		; countNumber
	DD	00H
	DQ	FLAT:?countNumber@@YAHHHH@Z$rtcVarDesc
CONST	ENDS
;	COMDAT xdata
xdata	SEGMENT
$unwind$?__empty_global_delete@@YAXPEAX_K@Z DD 025051801H
	DD	01132318H
	DD	0700c001dH
	DD	0500bH
xdata	ENDS
;	COMDAT xdata
xdata	SEGMENT
$unwind$?__empty_global_delete@@YAXPEAX@Z DD 025051301H
	DD	010e2313H
	DD	07007001dH
	DD	05006H
xdata	ENDS
; Function compile flags: /Odt
;	COMDAT __JustMyCode_Default
_TEXT	SEGMENT
__JustMyCode_Default PROC				; COMDAT
  00000	c2 00 00	 ret	 0
__JustMyCode_Default ENDP
_TEXT	ENDS
; Function compile flags: /Odtp /RTCsu /ZI
; File D:\pipec\sem2\kpo\test\test\countNumber.cpp
;	COMDAT ?countNumber@@YAHHHH@Z
_TEXT	SEGMENT
DaysInMountch$ = 8
OrdinalNumber$ = 84
i$4 = 116
day$ = 368
month$ = 376
year$ = 384
?countNumber@@YAHHHH@Z PROC				; countNumber, COMDAT

; 4    : {

$LN7:
  00000	44 89 44 24 18	 mov	 DWORD PTR [rsp+24], r8d
  00005	89 54 24 10	 mov	 DWORD PTR [rsp+16], edx
  00009	89 4c 24 08	 mov	 DWORD PTR [rsp+8], ecx
  0000d	55		 push	 rbp
  0000e	57		 push	 rdi
  0000f	48 81 ec 78 01
	00 00		 sub	 rsp, 376		; 00000178H
  00016	48 8d 6c 24 20	 lea	 rbp, QWORD PTR [rsp+32]
  0001b	48 8d 7c 24 20	 lea	 rdi, QWORD PTR [rsp+32]
  00020	b9 26 00 00 00	 mov	 ecx, 38			; 00000026H
  00025	b8 cc cc cc cc	 mov	 eax, -858993460		; ccccccccH
  0002a	f3 ab		 rep stosd
  0002c	8b 8c 24 98 01
	00 00		 mov	 ecx, DWORD PTR [rsp+408]
  00033	48 8d 0d 00 00
	00 00		 lea	 rcx, OFFSET FLAT:__3D60FF8C_countNumber@cpp
  0003a	e8 00 00 00 00	 call	 __CheckForDebuggerJustMyCode
  0003f	90		 npad	 1

; 5    : 	int DaysInMountch[] = {31, 28, 31, 30, 31, 30, 31, 31, 30, 31, 30, 31};

  00040	c7 45 08 1f 00
	00 00		 mov	 DWORD PTR DaysInMountch$[rbp], 31
  00047	c7 45 0c 1c 00
	00 00		 mov	 DWORD PTR DaysInMountch$[rbp+4], 28
  0004e	c7 45 10 1f 00
	00 00		 mov	 DWORD PTR DaysInMountch$[rbp+8], 31
  00055	c7 45 14 1e 00
	00 00		 mov	 DWORD PTR DaysInMountch$[rbp+12], 30
  0005c	c7 45 18 1f 00
	00 00		 mov	 DWORD PTR DaysInMountch$[rbp+16], 31
  00063	c7 45 1c 1e 00
	00 00		 mov	 DWORD PTR DaysInMountch$[rbp+20], 30
  0006a	c7 45 20 1f 00
	00 00		 mov	 DWORD PTR DaysInMountch$[rbp+24], 31
  00071	c7 45 24 1f 00
	00 00		 mov	 DWORD PTR DaysInMountch$[rbp+28], 31
  00078	c7 45 28 1e 00
	00 00		 mov	 DWORD PTR DaysInMountch$[rbp+32], 30
  0007f	c7 45 2c 1f 00
	00 00		 mov	 DWORD PTR DaysInMountch$[rbp+36], 31
  00086	c7 45 30 1e 00
	00 00		 mov	 DWORD PTR DaysInMountch$[rbp+40], 30
  0008d	c7 45 34 1f 00
	00 00		 mov	 DWORD PTR DaysInMountch$[rbp+44], 31

; 6    : 	if (defineLeapYear(year)) {

  00094	8b 8d 80 01 00
	00		 mov	 ecx, DWORD PTR year$[rbp]
  0009a	e8 00 00 00 00	 call	 ?defineLeapYear@@YA_NH@Z ; defineLeapYear
  0009f	0f b6 c0	 movzx	 eax, al
  000a2	85 c0		 test	 eax, eax
  000a4	74 11		 je	 SHORT $LN5@countNumbe

; 7    : 		DaysInMountch[1] = 29;

  000a6	b8 04 00 00 00	 mov	 eax, 4
  000ab	48 6b c0 01	 imul	 rax, rax, 1
  000af	c7 44 05 08 1d
	00 00 00	 mov	 DWORD PTR DaysInMountch$[rbp+rax], 29
$LN5@countNumbe:

; 8    : 	}
; 9    : 	int OrdinalNumber = day;

  000b7	8b 85 70 01 00
	00		 mov	 eax, DWORD PTR day$[rbp]
  000bd	89 45 54	 mov	 DWORD PTR OrdinalNumber$[rbp], eax

; 10   : 	for (int i = 0; i < month - 1; i++)

  000c0	c7 45 74 00 00
	00 00		 mov	 DWORD PTR i$4[rbp], 0
  000c7	eb 08		 jmp	 SHORT $LN4@countNumbe
$LN2@countNumbe:
  000c9	8b 45 74	 mov	 eax, DWORD PTR i$4[rbp]
  000cc	ff c0		 inc	 eax
  000ce	89 45 74	 mov	 DWORD PTR i$4[rbp], eax
$LN4@countNumbe:
  000d1	8b 85 78 01 00
	00		 mov	 eax, DWORD PTR month$[rbp]
  000d7	ff c8		 dec	 eax
  000d9	39 45 74	 cmp	 DWORD PTR i$4[rbp], eax
  000dc	7d 14		 jge	 SHORT $LN3@countNumbe

; 11   : 	{
; 12   : 		OrdinalNumber += DaysInMountch[i];

  000de	48 63 45 74	 movsxd	 rax, DWORD PTR i$4[rbp]
  000e2	8b 44 85 08	 mov	 eax, DWORD PTR DaysInMountch$[rbp+rax*4]
  000e6	8b 4d 54	 mov	 ecx, DWORD PTR OrdinalNumber$[rbp]
  000e9	03 c8		 add	 ecx, eax
  000eb	8b c1		 mov	 eax, ecx
  000ed	89 45 54	 mov	 DWORD PTR OrdinalNumber$[rbp], eax

; 13   : 	}

  000f0	eb d7		 jmp	 SHORT $LN2@countNumbe
$LN3@countNumbe:

; 14   : 	return OrdinalNumber;

  000f2	8b 45 54	 mov	 eax, DWORD PTR OrdinalNumber$[rbp]

; 15   : }

  000f5	8b f8		 mov	 edi, eax
  000f7	48 8d 4d e0	 lea	 rcx, QWORD PTR [rbp-32]
  000fb	48 8d 15 00 00
	00 00		 lea	 rdx, OFFSET FLAT:?countNumber@@YAHHHH@Z$rtcFrameData
  00102	e8 00 00 00 00	 call	 _RTC_CheckStackVars
  00107	8b c7		 mov	 eax, edi
  00109	48 8d a5 58 01
	00 00		 lea	 rsp, QWORD PTR [rbp+344]
  00110	5f		 pop	 rdi
  00111	5d		 pop	 rbp
  00112	c3		 ret	 0
?countNumber@@YAHHHH@Z ENDP				; countNumber
_TEXT	ENDS
; Function compile flags: /Odtp /RTCsu /ZI
; File D:\pipec\sem2\kpo\test\test\countNumber.cpp
;	COMDAT ?__empty_global_delete@@YAXPEAX_K@Z
_TEXT	SEGMENT
__formal$ = 224
__formal$ = 232
?__empty_global_delete@@YAXPEAX_K@Z PROC		; __empty_global_delete, COMDAT

$LN3:
  00000	48 89 54 24 10	 mov	 QWORD PTR [rsp+16], rdx
  00005	48 89 4c 24 08	 mov	 QWORD PTR [rsp+8], rcx
  0000a	55		 push	 rbp
  0000b	57		 push	 rdi
  0000c	48 81 ec e8 00
	00 00		 sub	 rsp, 232		; 000000e8H
  00013	48 8d 6c 24 20	 lea	 rbp, QWORD PTR [rsp+32]
  00018	48 8d 0d 00 00
	00 00		 lea	 rcx, OFFSET FLAT:__3D60FF8C_countNumber@cpp
  0001f	e8 00 00 00 00	 call	 __CheckForDebuggerJustMyCode
  00024	90		 npad	 1
  00025	48 8d a5 c8 00
	00 00		 lea	 rsp, QWORD PTR [rbp+200]
  0002c	5f		 pop	 rdi
  0002d	5d		 pop	 rbp
  0002e	c3		 ret	 0
?__empty_global_delete@@YAXPEAX_K@Z ENDP		; __empty_global_delete
_TEXT	ENDS
; Function compile flags: /Odtp /RTCsu /ZI
; File D:\pipec\sem2\kpo\test\test\countNumber.cpp
;	COMDAT ?__empty_global_delete@@YAXPEAX@Z
_TEXT	SEGMENT
__formal$ = 224
?__empty_global_delete@@YAXPEAX@Z PROC			; __empty_global_delete, COMDAT

$LN3:
  00000	48 89 4c 24 08	 mov	 QWORD PTR [rsp+8], rcx
  00005	55		 push	 rbp
  00006	57		 push	 rdi
  00007	48 81 ec e8 00
	00 00		 sub	 rsp, 232		; 000000e8H
  0000e	48 8d 6c 24 20	 lea	 rbp, QWORD PTR [rsp+32]
  00013	48 8d 0d 00 00
	00 00		 lea	 rcx, OFFSET FLAT:__3D60FF8C_countNumber@cpp
  0001a	e8 00 00 00 00	 call	 __CheckForDebuggerJustMyCode
  0001f	90		 npad	 1
  00020	48 8d a5 c8 00
	00 00		 lea	 rsp, QWORD PTR [rbp+200]
  00027	5f		 pop	 rdi
  00028	5d		 pop	 rbp
  00029	c3		 ret	 0
?__empty_global_delete@@YAXPEAX@Z ENDP			; __empty_global_delete
_TEXT	ENDS
END
