; Listing generated by Microsoft (R) Optimizing Compiler Version 19.41.34120.0 

include listing.inc

INCLUDELIB MSVCRTD
INCLUDELIB OLDNAMES

msvcjmc	SEGMENT
__D99B3FB8_test@pch DB 01H
__A425C53E_defineLeapYear@cpp DB 01H
__BEE47252_stdafx@h DB 01H
__45E97609_stdafx@cpp DB 01H
msvcjmc	ENDS
PUBLIC	?__empty_global_delete@@YAXPEAX@Z		; __empty_global_delete
PUBLIC	?__empty_global_delete@@YAXPEAX_K@Z		; __empty_global_delete
PUBLIC	?defineLeapYear@@YA_NH@Z			; defineLeapYear
PUBLIC	__JustMyCode_Default
EXTRN	_RTC_InitBase:PROC
EXTRN	_RTC_Shutdown:PROC
EXTRN	__CheckForDebuggerJustMyCode:PROC
;	COMDAT pdata
pdata	SEGMENT
$pdata$?__empty_global_delete@@YAXPEAX@Z DD imagerel $LN3
	DD	imagerel $LN3+42
	DD	imagerel $unwind$?__empty_global_delete@@YAXPEAX@Z
pdata	ENDS
;	COMDAT pdata
pdata	SEGMENT
$pdata$?__empty_global_delete@@YAXPEAX_K@Z DD imagerel $LN3
	DD	imagerel $LN3+47
	DD	imagerel $unwind$?__empty_global_delete@@YAXPEAX_K@Z
pdata	ENDS
;	COMDAT pdata
pdata	SEGMENT
$pdata$?defineLeapYear@@YA_NH@Z DD imagerel $LN6
	DD	imagerel $LN6+108
	DD	imagerel $unwind$?defineLeapYear@@YA_NH@Z
pdata	ENDS
;	COMDAT rtc$TMZ
rtc$TMZ	SEGMENT
_RTC_Shutdown.rtc$TMZ DQ FLAT:_RTC_Shutdown
rtc$TMZ	ENDS
;	COMDAT rtc$IMZ
rtc$IMZ	SEGMENT
_RTC_InitBase.rtc$IMZ DQ FLAT:_RTC_InitBase
rtc$IMZ	ENDS
;	COMDAT xdata
xdata	SEGMENT
$unwind$?defineLeapYear@@YA_NH@Z DD 025051201H
	DD	010d2312H
	DD	07006001dH
	DD	05005H
xdata	ENDS
;	COMDAT xdata
xdata	SEGMENT
$unwind$?__empty_global_delete@@YAXPEAX_K@Z DD 025051801H
	DD	01132318H
	DD	0700c001dH
	DD	0500bH
xdata	ENDS
;	COMDAT xdata
xdata	SEGMENT
$unwind$?__empty_global_delete@@YAXPEAX@Z DD 025051301H
	DD	010e2313H
	DD	07007001dH
	DD	05006H
xdata	ENDS
; Function compile flags: /Odt
;	COMDAT __JustMyCode_Default
_TEXT	SEGMENT
__JustMyCode_Default PROC				; COMDAT
  00000	c2 00 00	 ret	 0
__JustMyCode_Default ENDP
_TEXT	ENDS
; Function compile flags: /Odtp /RTCsu /ZI
; File D:\pipec\sem2\kpo\test\test\defineLeapYear.cpp
;	COMDAT ?defineLeapYear@@YA_NH@Z
_TEXT	SEGMENT
year$ = 224
?defineLeapYear@@YA_NH@Z PROC				; defineLeapYear, COMDAT

; 4    : {

$LN6:
  00000	89 4c 24 08	 mov	 DWORD PTR [rsp+8], ecx
  00004	55		 push	 rbp
  00005	57		 push	 rdi
  00006	48 81 ec e8 00
	00 00		 sub	 rsp, 232		; 000000e8H
  0000d	48 8d 6c 24 20	 lea	 rbp, QWORD PTR [rsp+32]
  00012	48 8d 0d 00 00
	00 00		 lea	 rcx, OFFSET FLAT:__A425C53E_defineLeapYear@cpp
  00019	e8 00 00 00 00	 call	 __CheckForDebuggerJustMyCode
  0001e	90		 npad	 1

; 5    : 	if ((year % 4 == 0 && year % 100 != 0) || (year % 400 == 0)) {

  0001f	8b 85 e0 00 00
	00		 mov	 eax, DWORD PTR year$[rbp]
  00025	99		 cdq
  00026	83 e2 03	 and	 edx, 3
  00029	03 c2		 add	 eax, edx
  0002b	83 e0 03	 and	 eax, 3
  0002e	2b c2		 sub	 eax, edx
  00030	85 c0		 test	 eax, eax
  00032	75 14		 jne	 SHORT $LN4@defineLeap
  00034	8b 85 e0 00 00
	00		 mov	 eax, DWORD PTR year$[rbp]
  0003a	99		 cdq
  0003b	b9 64 00 00 00	 mov	 ecx, 100		; 00000064H
  00040	f7 f9		 idiv	 ecx
  00042	8b c2		 mov	 eax, edx
  00044	85 c0		 test	 eax, eax
  00046	75 14		 jne	 SHORT $LN3@defineLeap
$LN4@defineLeap:
  00048	8b 85 e0 00 00
	00		 mov	 eax, DWORD PTR year$[rbp]
  0004e	99		 cdq
  0004f	b9 90 01 00 00	 mov	 ecx, 400		; 00000190H
  00054	f7 f9		 idiv	 ecx
  00056	8b c2		 mov	 eax, edx
  00058	85 c0		 test	 eax, eax
  0005a	75 04		 jne	 SHORT $LN2@defineLeap
$LN3@defineLeap:

; 6    : 		return 1;

  0005c	b0 01		 mov	 al, 1
  0005e	eb 02		 jmp	 SHORT $LN1@defineLeap
$LN2@defineLeap:

; 7    : 	}
; 8    : 	return 0;

  00060	32 c0		 xor	 al, al
$LN1@defineLeap:

; 9    : }

  00062	48 8d a5 c8 00
	00 00		 lea	 rsp, QWORD PTR [rbp+200]
  00069	5f		 pop	 rdi
  0006a	5d		 pop	 rbp
  0006b	c3		 ret	 0
?defineLeapYear@@YA_NH@Z ENDP				; defineLeapYear
_TEXT	ENDS
; Function compile flags: /Odtp /RTCsu /ZI
; File D:\pipec\sem2\kpo\test\test\defineLeapYear.cpp
;	COMDAT ?__empty_global_delete@@YAXPEAX_K@Z
_TEXT	SEGMENT
__formal$ = 224
__formal$ = 232
?__empty_global_delete@@YAXPEAX_K@Z PROC		; __empty_global_delete, COMDAT

$LN3:
  00000	48 89 54 24 10	 mov	 QWORD PTR [rsp+16], rdx
  00005	48 89 4c 24 08	 mov	 QWORD PTR [rsp+8], rcx
  0000a	55		 push	 rbp
  0000b	57		 push	 rdi
  0000c	48 81 ec e8 00
	00 00		 sub	 rsp, 232		; 000000e8H
  00013	48 8d 6c 24 20	 lea	 rbp, QWORD PTR [rsp+32]
  00018	48 8d 0d 00 00
	00 00		 lea	 rcx, OFFSET FLAT:__A425C53E_defineLeapYear@cpp
  0001f	e8 00 00 00 00	 call	 __CheckForDebuggerJustMyCode
  00024	90		 npad	 1
  00025	48 8d a5 c8 00
	00 00		 lea	 rsp, QWORD PTR [rbp+200]
  0002c	5f		 pop	 rdi
  0002d	5d		 pop	 rbp
  0002e	c3		 ret	 0
?__empty_global_delete@@YAXPEAX_K@Z ENDP		; __empty_global_delete
_TEXT	ENDS
; Function compile flags: /Odtp /RTCsu /ZI
; File D:\pipec\sem2\kpo\test\test\defineLeapYear.cpp
;	COMDAT ?__empty_global_delete@@YAXPEAX@Z
_TEXT	SEGMENT
__formal$ = 224
?__empty_global_delete@@YAXPEAX@Z PROC			; __empty_global_delete, COMDAT

$LN3:
  00000	48 89 4c 24 08	 mov	 QWORD PTR [rsp+8], rcx
  00005	55		 push	 rbp
  00006	57		 push	 rdi
  00007	48 81 ec e8 00
	00 00		 sub	 rsp, 232		; 000000e8H
  0000e	48 8d 6c 24 20	 lea	 rbp, QWORD PTR [rsp+32]
  00013	48 8d 0d 00 00
	00 00		 lea	 rcx, OFFSET FLAT:__A425C53E_defineLeapYear@cpp
  0001a	e8 00 00 00 00	 call	 __CheckForDebuggerJustMyCode
  0001f	90		 npad	 1
  00020	48 8d a5 c8 00
	00 00		 lea	 rsp, QWORD PTR [rbp+200]
  00027	5f		 pop	 rdi
  00028	5d		 pop	 rbp
  00029	c3		 ret	 0
?__empty_global_delete@@YAXPEAX@Z ENDP			; __empty_global_delete
_TEXT	ENDS
END
