; Listing generated by Microsoft (R) Optimizing Compiler Version 19.41.34120.0 

include listing.inc

INCLUDELIB MSVCRTD
INCLUDELIB OLDNAMES

PUBLIC	__@@_PchSym_@00@UkrkvxUhvnCUpklUgvhgUgvhgUcGEUwvyftUhgwzucOlyq@4B2008FD98C1DD4
;	COMDAT __@@_PchSym_@00@UkrkvxUhvnCUpklUgvhgUgvhgUcGEUwvyftUhgwzucOlyq@4B2008FD98C1DD4
_BSS	SEGMENT
__@@_PchSym_@00@UkrkvxUhvnCUpklUgvhgUgvhgUcGEUwvyftUhgwzucOlyq@4B2008FD98C1DD4 DD 01H DUP (?)
_BSS	ENDS
msvcjmc	SEGMENT
__68D132EB_concurrencysal@h DB 01H
__4DC47379_sal@h DB 01H
__B6ADDB23_vadefs@h DB 01H
__A2A1025A_vcruntime@h DB 01H
__467C4747_xkeycheck@h DB 01H
__4FC715A5_yvals_core@h DB 01H
__1B0272D9_corecrt@h DB 01H
__B9985323_float@h DB 01H
__6F903AFB_cfloat DB 01H
__70D69B7A_limits@h DB 01H
__2E6DAE0D_climits DB 01H
__72E6C6A2_vcruntime_new@h DB 01H
__D36623B7_vcruntime_new_debug@h DB 01H
__935DC21B_crtdbg@h DB 01H
__BB79C343_crtdefs@h DB 01H
__F3AEDF63_use_ansi@h DB 01H
__1CC23A40_yvals@h DB 01H
__BB16330F_corecrt_math@h DB 01H
__3BF2A406_math@h DB 01H
__45DED006_corecrt_malloc@h DB 01H
__13F5961F_stddef@h DB 01H
__FD6DBD68_corecrt_search@h DB 01H
__E2E33A61_corecrt_wstdlib@h DB 01H
__6E5ACABA_stdlib@h DB 01H
__AA828CFF_cstdlib DB 01H
__08A0ED2A_xtr1common DB 01H
__0EF3BC42_intrin0@inl@h DB 01H
__A2547A48_intrin0@h DB 01H
__2F7E7DCE_cmath DB 01H
__44420885_corecrt_stdio_config@h DB 01H
__AB601D8D_corecrt_wstdio@h DB 01H
__C1EC35D3_stdio@h DB 01H
__1CD4F17C_cstdio DB 01H
__61CC25A1_errno@h DB 01H
__B2A17AAC_vcruntime_string@h DB 01H
__E4C945B4_corecrt_memcpy_s@h DB 01H
__8EAFF484_corecrt_memory@h DB 01H
__6490AEC5_corecrt_wstring@h DB 01H
__E8295E1E_string@h DB 01H
__E610241F_cstring DB 01H
__EF1F6BBA_corecrt_wconio@h DB 01H
__74484FB3_corecrt_wctype@h DB 01H
__3D1D430C_corecrt_wdirect@h DB 01H
__8ECB7138_corecrt_share@h DB 01H
__DB7FEBA6_corecrt_wio@h DB 01H
__9A9F0068_corecrt_wprocess@h DB 01H
__369A9BC3_corecrt_wtime@h DB 01H
__CE789B9D_types@h DB 01H
__9901C817_stat@h DB 01H
__3FCAD62E_wchar@h DB 01H
__865F272F_cwchar DB 01H
__C59FA219_iosfwd DB 01H
__0F495652_cstddef DB 01H
__721744D8_initializer_list DB 01H
__CEA0B545_stdint@h DB 01H
__17DC6D82_cstdint DB 01H
__08D5818C_type_traits DB 01H
__9D8F0974_utility DB 01H
__330E7A06___msvc_iter_core@hpp DB 01H
__A278CDB8_xutility DB 01H
__B3D47AF8_iterator DB 01H
__F7972D0B_share@h DB 01H
__7A3A8378___msvc_system_error_abi@hpp DB 01H
__81F58587_cerrno DB 01H
__FA77ED4C_malloc@h DB 01H
__89766DA4_corecrt_terminate@h DB 01H
__5141DBE6_eh@h DB 01H
__DB8826E5_vcruntime_exception@h DB 01H
__7326ADD5_exception DB 01H
__04784017___msvc_sanitizer_annotate_container@hpp DB 01H
__3D3FEF16___msvc_string_view@hpp DB 01H
__0976779F_limits DB 01H
__3497A4A5_new DB 01H
__792A2103_xatomic@h DB 01H
__F71A6AB7_xmemory DB 01H
__83C9EC2B_xstring DB 01H
__FA689788_stdexcept DB 01H
__0C5FCBF5_xcall_once@h DB 01H
__B4572F4F_xerrc@h DB 01H
__B469EC35___msvc_threads_core@hpp DB 01H
__0A9237D2_time@h DB 01H
__E9CDE1C6_ctime DB 01H
__14BC2EF9_xtimec@h DB 01H
__92E0E8D0_xthreads@h DB 01H
__62432B5D_atomic DB 01H
__B302D9D5_system_error DB 01H
__27E09C99_vcruntime_typeinfo@h DB 01H
__D2A73EA1_typeinfo DB 01H
__B5D87B11_memory DB 01H
__999D2C1E_xfacet DB 01H
__1C984816___msvc_xlocinfo_types@hpp DB 01H
__1EC467ED_ctype@h DB 01H
__131F16DB_cctype DB 01H
__791C33B7_locale@h DB 01H
__392E502E_clocale DB 01H
__CD2EDD69_xlocinfo DB 01H
__5CF7981A_xlocale DB 01H
__F4CBAA7A_xiosbase DB 01H
__F8C82F34_streambuf DB 01H
__C270FE0D_xlocnum DB 01H
__CC5A9EB3_ios DB 01H
__4FE742DE_ostream DB 01H
__2C3777E4_istream DB 01H
__C001B7A7_iostream DB 01H
__C10BFD8D_string DB 01H
__BEE47252_stdafx@h DB 01H
__D99B3FB8_test@pch DB 01H
__45E97609_stdafx@cpp DB 01H
msvcjmc	ENDS
PUBLIC	?__empty_global_delete@@YAXPEAX@Z		; __empty_global_delete
PUBLIC	?__empty_global_delete@@YAXPEAX_K@Z		; __empty_global_delete
PUBLIC	__JustMyCode_Default
EXTRN	_RTC_InitBase:PROC
EXTRN	_RTC_Shutdown:PROC
EXTRN	__CheckForDebuggerJustMyCode:PROC
;	COMDAT pdata
pdata	SEGMENT
$pdata$?__empty_global_delete@@YAXPEAX@Z DD imagerel $LN3
	DD	imagerel $LN3+42
	DD	imagerel $unwind$?__empty_global_delete@@YAXPEAX@Z
pdata	ENDS
;	COMDAT pdata
pdata	SEGMENT
$pdata$?__empty_global_delete@@YAXPEAX_K@Z DD imagerel $LN3
	DD	imagerel $LN3+47
	DD	imagerel $unwind$?__empty_global_delete@@YAXPEAX_K@Z
pdata	ENDS
;	COMDAT rtc$TMZ
rtc$TMZ	SEGMENT
_RTC_Shutdown.rtc$TMZ DQ FLAT:_RTC_Shutdown
rtc$TMZ	ENDS
;	COMDAT rtc$IMZ
rtc$IMZ	SEGMENT
_RTC_InitBase.rtc$IMZ DQ FLAT:_RTC_InitBase
rtc$IMZ	ENDS
;	COMDAT xdata
xdata	SEGMENT
$unwind$?__empty_global_delete@@YAXPEAX_K@Z DD 025051801H
	DD	01132318H
	DD	0700c001dH
	DD	0500bH
xdata	ENDS
;	COMDAT xdata
xdata	SEGMENT
$unwind$?__empty_global_delete@@YAXPEAX@Z DD 025051301H
	DD	010e2313H
	DD	07007001dH
	DD	05006H
xdata	ENDS
; Function compile flags: /Odt
;	COMDAT __JustMyCode_Default
_TEXT	SEGMENT
__JustMyCode_Default PROC				; COMDAT
  00000	c2 00 00	 ret	 0
__JustMyCode_Default ENDP
_TEXT	ENDS
; Function compile flags: /Odtp /RTCsu /ZI
; File D:\pipec\sem2\kpo\test\test\stdafx.cpp
;	COMDAT ?__empty_global_delete@@YAXPEAX_K@Z
_TEXT	SEGMENT
__formal$ = 224
__formal$ = 232
?__empty_global_delete@@YAXPEAX_K@Z PROC		; __empty_global_delete, COMDAT

$LN3:
  00000	48 89 54 24 10	 mov	 QWORD PTR [rsp+16], rdx
  00005	48 89 4c 24 08	 mov	 QWORD PTR [rsp+8], rcx
  0000a	55		 push	 rbp
  0000b	57		 push	 rdi
  0000c	48 81 ec e8 00
	00 00		 sub	 rsp, 232		; 000000e8H
  00013	48 8d 6c 24 20	 lea	 rbp, QWORD PTR [rsp+32]
  00018	48 8d 0d 00 00
	00 00		 lea	 rcx, OFFSET FLAT:__45E97609_stdafx@cpp
  0001f	e8 00 00 00 00	 call	 __CheckForDebuggerJustMyCode
  00024	90		 npad	 1
  00025	48 8d a5 c8 00
	00 00		 lea	 rsp, QWORD PTR [rbp+200]
  0002c	5f		 pop	 rdi
  0002d	5d		 pop	 rbp
  0002e	c3		 ret	 0
?__empty_global_delete@@YAXPEAX_K@Z ENDP		; __empty_global_delete
_TEXT	ENDS
; Function compile flags: /Odtp /RTCsu /ZI
; File D:\pipec\sem2\kpo\test\test\stdafx.cpp
;	COMDAT ?__empty_global_delete@@YAXPEAX@Z
_TEXT	SEGMENT
__formal$ = 224
?__empty_global_delete@@YAXPEAX@Z PROC			; __empty_global_delete, COMDAT

$LN3:
  00000	48 89 4c 24 08	 mov	 QWORD PTR [rsp+8], rcx
  00005	55		 push	 rbp
  00006	57		 push	 rdi
  00007	48 81 ec e8 00
	00 00		 sub	 rsp, 232		; 000000e8H
  0000e	48 8d 6c 24 20	 lea	 rbp, QWORD PTR [rsp+32]
  00013	48 8d 0d 00 00
	00 00		 lea	 rcx, OFFSET FLAT:__45E97609_stdafx@cpp
  0001a	e8 00 00 00 00	 call	 __CheckForDebuggerJustMyCode
  0001f	90		 npad	 1
  00020	48 8d a5 c8 00
	00 00		 lea	 rsp, QWORD PTR [rbp+200]
  00027	5f		 pop	 rdi
  00028	5d		 pop	 rbp
  00029	c3		 ret	 0
?__empty_global_delete@@YAXPEAX@Z ENDP			; __empty_global_delete
_TEXT	ENDS
END
