; Listing generated by Microsoft (R) Optimizing Compiler Version 19.41.34120.0 

include listing.inc

INCLUDELIB MSVCRTD
INCLUDELIB OLDNAMES

PUBLIC	__@@_PchSym_@00@UkrkvxUhvnCUpklUozyDUgvhgUgvhgUcGEUwvyftUhgwzucOlyq@4B2008FD98C1DD4
;	COMDAT __@@_PchSym_@00@UkrkvxUhvnCUpklUozyDUgvhgUgvhgUcGEUwvyftUhgwzucOlyq@4B2008FD98C1DD4
_BSS	SEGMENT
__@@_PchSym_@00@UkrkvxUhvnCUpklUozyDUgvhgUgvhgUcGEUwvyftUhgwzucOlyq@4B2008FD98C1DD4 DD 01H DUP (?)
_BSS	ENDS
msvcjmc	SEGMENT
__68D132EB_concurrencysal@h DB 01H
__4DC47379_sal@h DB 01H
__B6ADDB23_vadefs@h DB 01H
__A2A1025A_vcruntime@h DB 01H
__467C4747_xkeycheck@h DB 01H
__4FC715A5_yvals_core@h DB 01H
__70D69B7A_limits@h DB 01H
__2E6DAE0D_climits DB 01H
__08A0ED2A_xtr1common DB 01H
__0EF3BC42_intrin0@inl@h DB 01H
__A2547A48_intrin0@h DB 01H
__47A6BE20___msvc_bit_utils@hpp DB 01H
__04784017___msvc_sanitizer_annotate_container@hpp DB 01H
__CEA0B545_stdint@h DB 01H
__17DC6D82_cstdint DB 01H
__1B0272D9_corecrt@h DB 01H
__BB16330F_corecrt_math@h DB 01H
__3BF2A406_math@h DB 01H
__45DED006_corecrt_malloc@h DB 01H
__13F5961F_stddef@h DB 01H
__FD6DBD68_corecrt_search@h DB 01H
__E2E33A61_corecrt_wstdlib@h DB 01H
__6E5ACABA_stdlib@h DB 01H
__AA828CFF_cstdlib DB 01H
__B9985323_float@h DB 01H
__6F903AFB_cfloat DB 01H
__44420885_corecrt_stdio_config@h DB 01H
__AB601D8D_corecrt_wstdio@h DB 01H
__C1EC35D3_stdio@h DB 01H
__1CD4F17C_cstdio DB 01H
__61CC25A1_errno@h DB 01H
__B2A17AAC_vcruntime_string@h DB 01H
__E4C945B4_corecrt_memcpy_s@h DB 01H
__EF1F6BBA_corecrt_wconio@h DB 01H
__74484FB3_corecrt_wctype@h DB 01H
__3D1D430C_corecrt_wdirect@h DB 01H
__8ECB7138_corecrt_share@h DB 01H
__DB7FEBA6_corecrt_wio@h DB 01H
__9A9F0068_corecrt_wprocess@h DB 01H
__6490AEC5_corecrt_wstring@h DB 01H
__369A9BC3_corecrt_wtime@h DB 01H
__CE789B9D_types@h DB 01H
__9901C817_stat@h DB 01H
__3FCAD62E_wchar@h DB 01H
__865F272F_cwchar DB 01H
__0976779F_limits DB 01H
__72E6C6A2_vcruntime_new@h DB 01H
__D36623B7_vcruntime_new_debug@h DB 01H
__935DC21B_crtdbg@h DB 01H
__BB79C343_crtdefs@h DB 01H
__F3AEDF63_use_ansi@h DB 01H
__1CC23A40_yvals@h DB 01H
__0F495652_cstddef DB 01H
__08D5818C_type_traits DB 01H
__FA77ED4C_malloc@h DB 01H
__89766DA4_corecrt_terminate@h DB 01H
__5141DBE6_eh@h DB 01H
__DB8826E5_vcruntime_exception@h DB 01H
__7326ADD5_exception DB 01H
__3497A4A5_new DB 01H
__792A2103_xatomic@h DB 01H
__721744D8_initializer_list DB 01H
__9D8F0974_utility DB 01H
__330E7A06___msvc_iter_core@hpp DB 01H
__8EAFF484_corecrt_memory@h DB 01H
__E8295E1E_string@h DB 01H
__E610241F_cstring DB 01H
__A278CDB8_xutility DB 01H
__F71A6AB7_xmemory DB 01H
__44DB077F_vector DB 01H
__C59FA219_iosfwd DB 01H
__3D3FEF16___msvc_string_view@hpp DB 01H
__83C9EC2B_xstring DB 01H
__1EC467ED_ctype@h DB 01H
__131F16DB_cctype DB 01H
__C10BFD8D_string DB 01H
__BDEECFEB_getnumber@h DB 01H
__BA6EA391_isleap@h DB 01H
__18A5FD50_stdafx@h DB 01H
__A5CE043C_test@pch DB 01H
__0AD82C7B_stdafx@cpp DB 01H
msvcjmc	ENDS
PUBLIC	__JustMyCode_Default
; Function compile flags: /Odt
;	COMDAT __JustMyCode_Default
_TEXT	SEGMENT
__JustMyCode_Default PROC				; COMDAT
  00000	c2 00 00	 ret	 0
__JustMyCode_Default ENDP
_TEXT	ENDS
END
